; ModuleID = '9/773.c'
source_filename = "9/773.c"
target datalayout = "e-m:e-p270:32:32-p271:32:32-p272:64:64-i64:64-f80:128-n8:16:32:64-S128"
target triple = "x86_64-pc-linux-gnu"

%struct.x = type { [10 x i8], i32 }

@.str = private unnamed_addr constant [3 x i8] c"%d\00", align 1
@.str.1 = private unnamed_addr constant [6 x i8] c"%s %d\00", align 1
@y = common dso_local global [100 x %struct.x] zeroinitializer, align 16
@.str.2 = private unnamed_addr constant [4 x i8] c"%s\0A\00", align 1

; Function Attrs: noinline nounwind uwtable
define dso_local void @main() #0 {
  %1 = alloca i32, align 4
  %2 = alloca i32, align 4
  %3 = alloca i32, align 4
  %4 = alloca i32, align 4
  %5 = alloca [10 x i8], align 1
  %6 = call i32 (i8*, ...) @__isoc99_scanf(i8* getelementptr inbounds ([3 x i8], [3 x i8]* @.str, i64 0, i64 0), i32* %1)
  store i32 0, i32* %2, align 4
  br label %7

7:                                                ; preds = %21, %0
  %8 = load i32, i32* %2, align 4
  %9 = load i32, i32* %1, align 4
  %10 = icmp slt i32 %8, %9
  br i1 %10, label %11, label %24

11:                                               ; preds = %7
  %12 = load i32, i32* %2, align 4
  %13 = sext i32 %12 to i64
  %14 = getelementptr inbounds [100 x %struct.x], [100 x %struct.x]* @y, i64 0, i64 %13
  %15 = getelementptr inbounds %struct.x, %struct.x* %14, i32 0, i32 0
  %16 = load i32, i32* %2, align 4
  %17 = sext i32 %16 to i64
  %18 = getelementptr inbounds [100 x %struct.x], [100 x %struct.x]* @y, i64 0, i64 %17
  %19 = getelementptr inbounds %struct.x, %struct.x* %18, i32 0, i32 1
  %20 = call i32 (i8*, ...) @__isoc99_scanf(i8* getelementptr inbounds ([6 x i8], [6 x i8]* @.str.1, i64 0, i64 0), [10 x i8]* %15, i32* %19)
  br label %21

21:                                               ; preds = %11
  %22 = load i32, i32* %2, align 4
  %23 = add nsw i32 %22, 1
  store i32 %23, i32* %2, align 4
  br label %7

24:                                               ; preds = %7
  store i32 0, i32* %3, align 4
  br label %25

25:                                               ; preds = %113, %24
  %26 = load i32, i32* %3, align 4
  %27 = load i32, i32* %1, align 4
  %28 = sub nsw i32 %27, 1
  %29 = icmp slt i32 %26, %28
  br i1 %29, label %30, label %116

30:                                               ; preds = %25
  store i32 0, i32* %2, align 4
  br label %31

31:                                               ; preds = %109, %30
  %32 = load i32, i32* %2, align 4
  %33 = load i32, i32* %1, align 4
  %34 = sub nsw i32 %33, 1
  %35 = load i32, i32* %3, align 4
  %36 = sub nsw i32 %34, %35
  %37 = icmp slt i32 %32, %36
  br i1 %37, label %38, label %112

38:                                               ; preds = %31
  %39 = load i32, i32* %2, align 4
  %40 = sext i32 %39 to i64
  %41 = getelementptr inbounds [100 x %struct.x], [100 x %struct.x]* @y, i64 0, i64 %40
  %42 = getelementptr inbounds %struct.x, %struct.x* %41, i32 0, i32 1
  %43 = load i32, i32* %42, align 4
  %44 = load i32, i32* %2, align 4
  %45 = add nsw i32 %44, 1
  %46 = sext i32 %45 to i64
  %47 = getelementptr inbounds [100 x %struct.x], [100 x %struct.x]* @y, i64 0, i64 %46
  %48 = getelementptr inbounds %struct.x, %struct.x* %47, i32 0, i32 1
  %49 = load i32, i32* %48, align 4
  %50 = icmp slt i32 %43, %49
  br i1 %50, label %51, label %108

51:                                               ; preds = %38
  %52 = load i32, i32* %2, align 4
  %53 = add nsw i32 %52, 1
  %54 = sext i32 %53 to i64
  %55 = getelementptr inbounds [100 x %struct.x], [100 x %struct.x]* @y, i64 0, i64 %54
  %56 = getelementptr inbounds %struct.x, %struct.x* %55, i32 0, i32 1
  %57 = load i32, i32* %56, align 4
  %58 = icmp sge i32 %57, 60
  br i1 %58, label %59, label %108

59:                                               ; preds = %51
  %60 = getelementptr inbounds [10 x i8], [10 x i8]* %5, i64 0, i64 0
  %61 = load i32, i32* %2, align 4
  %62 = sext i32 %61 to i64
  %63 = getelementptr inbounds [100 x %struct.x], [100 x %struct.x]* @y, i64 0, i64 %62
  %64 = getelementptr inbounds %struct.x, %struct.x* %63, i32 0, i32 0
  %65 = getelementptr inbounds [10 x i8], [10 x i8]* %64, i64 0, i64 0
  %66 = call i8* @strcpy(i8* %60, i8* %65) #3
  %67 = load i32, i32* %2, align 4
  %68 = sext i32 %67 to i64
  %69 = getelementptr inbounds [100 x %struct.x], [100 x %struct.x]* @y, i64 0, i64 %68
  %70 = getelementptr inbounds %struct.x, %struct.x* %69, i32 0, i32 0
  %71 = getelementptr inbounds [10 x i8], [10 x i8]* %70, i64 0, i64 0
  %72 = load i32, i32* %2, align 4
  %73 = add nsw i32 %72, 1
  %74 = sext i32 %73 to i64
  %75 = getelementptr inbounds [100 x %struct.x], [100 x %struct.x]* @y, i64 0, i64 %74
  %76 = getelementptr inbounds %struct.x, %struct.x* %75, i32 0, i32 0
  %77 = getelementptr inbounds [10 x i8], [10 x i8]* %76, i64 0, i64 0
  %78 = call i8* @strcpy(i8* %71, i8* %77) #3
  %79 = load i32, i32* %2, align 4
  %80 = add nsw i32 %79, 1
  %81 = sext i32 %80 to i64
  %82 = getelementptr inbounds [100 x %struct.x], [100 x %struct.x]* @y, i64 0, i64 %81
  %83 = getelementptr inbounds %struct.x, %struct.x* %82, i32 0, i32 0
  %84 = getelementptr inbounds [10 x i8], [10 x i8]* %83, i64 0, i64 0
  %85 = getelementptr inbounds [10 x i8], [10 x i8]* %5, i64 0, i64 0
  %86 = call i8* @strcpy(i8* %84, i8* %85) #3
  %87 = load i32, i32* %2, align 4
  %88 = sext i32 %87 to i64
  %89 = getelementptr inbounds [100 x %struct.x], [100 x %struct.x]* @y, i64 0, i64 %88
  %90 = getelementptr inbounds %struct.x, %struct.x* %89, i32 0, i32 1
  %91 = load i32, i32* %90, align 4
  store i32 %91, i32* %4, align 4
  %92 = load i32, i32* %2, align 4
  %93 = add nsw i32 %92, 1
  %94 = sext i32 %93 to i64
  %95 = getelementptr inbounds [100 x %struct.x], [100 x %struct.x]* @y, i64 0, i64 %94
  %96 = getelementptr inbounds %struct.x, %struct.x* %95, i32 0, i32 1
  %97 = load i32, i32* %96, align 4
  %98 = load i32, i32* %2, align 4
  %99 = sext i32 %98 to i64
  %100 = getelementptr inbounds [100 x %struct.x], [100 x %struct.x]* @y, i64 0, i64 %99
  %101 = getelementptr inbounds %struct.x, %struct.x* %100, i32 0, i32 1
  store i32 %97, i32* %101, align 4
  %102 = load i32, i32* %4, align 4
  %103 = load i32, i32* %2, align 4
  %104 = add nsw i32 %103, 1
  %105 = sext i32 %104 to i64
  %106 = getelementptr inbounds [100 x %struct.x], [100 x %struct.x]* @y, i64 0, i64 %105
  %107 = getelementptr inbounds %struct.x, %struct.x* %106, i32 0, i32 1
  store i32 %102, i32* %107, align 4
  br label %108

108:                                              ; preds = %59, %51, %38
  br label %109

109:                                              ; preds = %108
  %110 = load i32, i32* %2, align 4
  %111 = add nsw i32 %110, 1
  store i32 %111, i32* %2, align 4
  br label %31

112:                                              ; preds = %31
  br label %113

113:                                              ; preds = %112
  %114 = load i32, i32* %3, align 4
  %115 = add nsw i32 %114, 1
  store i32 %115, i32* %3, align 4
  br label %25

116:                                              ; preds = %25
  store i32 0, i32* %2, align 4
  br label %117

117:                                              ; preds = %128, %116
  %118 = load i32, i32* %2, align 4
  %119 = load i32, i32* %1, align 4
  %120 = icmp slt i32 %118, %119
  br i1 %120, label %121, label %131

121:                                              ; preds = %117
  %122 = load i32, i32* %2, align 4
  %123 = sext i32 %122 to i64
  %124 = getelementptr inbounds [100 x %struct.x], [100 x %struct.x]* @y, i64 0, i64 %123
  %125 = getelementptr inbounds %struct.x, %struct.x* %124, i32 0, i32 0
  %126 = getelementptr inbounds [10 x i8], [10 x i8]* %125, i64 0, i64 0
  %127 = call i32 (i8*, ...) @printf(i8* getelementptr inbounds ([4 x i8], [4 x i8]* @.str.2, i64 0, i64 0), i8* %126)
  br label %128

128:                                              ; preds = %121
  %129 = load i32, i32* %2, align 4
  %130 = add nsw i32 %129, 1
  store i32 %130, i32* %2, align 4
  br label %117

131:                                              ; preds = %117
  ret void
}

declare dso_local i32 @__isoc99_scanf(i8*, ...) #1

; Function Attrs: nounwind
declare dso_local i8* @strcpy(i8*, i8*) #2

declare dso_local i32 @printf(i8*, ...) #1


!llvm.module.flags = !{!0}
!llvm.ident = !{!1}

!0 = !{i32 1, !"wchar_size", i32 4}
!1 = !{!"clang version 10.0.0-4ubuntu1 "}
